target datalayout = "e-m:e-p270:32:32-p271:32:32-p272:64:64-i64:64-i128:128-f80:128-n8:16:32:64-S128"
target triple = "x86_64-unknown-linux-gnu"

%struct.BlockDriverState = type { i32, i8, i8, i8, i8, i8, ptr, ptr, ptr, %struct.anon, i8, [4096 x i8], [4096 x i8], [4096 x i8], [16 x i8], ptr, [4096 x i8], %struct.BlockLimits, i32, i32, i32, i32, [32 x i8], %union.anon, %union.anon.0, %union.anon.1, i32, [16 x %struct.anon.2], ptr, %struct.anon.3, ptr, ptr, %struct.anon.4, ptr, ptr, i32, ptr, i64, i64, %struct.QemuMutex, %struct.anon.5, %struct.Stat64, i32, i32, i32, i32, i32, i32, %struct.QemuMutex, %struct.anon.6, %struct.CoQueue, i8, i32, i8, %struct.CoMutex, ptr, ptr }
%struct.anon = type { ptr }
%struct.BlockLimits = type { i32, i64, i32, i64, i32, i32, i32, i64, i32, i64, i64, i32, i8, i32, i32, i32, i32, i32, i32, i32 }
%union.anon = type { %struct.QTailQLink }
%struct.QTailQLink = type { ptr, ptr }
%union.anon.0 = type { %struct.QTailQLink }
%union.anon.1 = type { %struct.QTailQLink }
%struct.anon.2 = type { ptr }
%struct.anon.3 = type { ptr }
%struct.anon.4 = type { ptr }
%struct.anon.5 = type { ptr }
%struct.Stat64 = type { i64 }
%struct.QemuMutex = type { %union.pthread_mutex_t, i8 }
%union.pthread_mutex_t = type { %struct.__pthread_mutex_s }
%struct.__pthread_mutex_s = type { i32, i32, i32, i32, i32, i16, i16, %struct.__pthread_internal_list }
%struct.__pthread_internal_list = type { ptr, ptr }
%struct.anon.6 = type { ptr }
%struct.CoQueue = type { %struct.anon.7 }
%struct.anon.7 = type { ptr, ptr }
%struct.CoMutex = type { i32, ptr, %struct.anon.8, %struct.anon.8, i32, i32, ptr }
%struct.anon.8 = type { ptr }
%struct.BDRVQcow2State = type { i32, i32, i32, i32, i32, i32, i32, i32, i32, i32, i32, i32, i32, i32, i64, i64, ptr, ptr, ptr, ptr, i32, %struct.anon.9, ptr, i64, i32, i32, i64, i64, %struct.CoMutex, %struct.Qcow2CryptoHeaderExtension, ptr, ptr, i8, i32, i64, i32, i32, ptr, i32, i64, i64, i32, i32, i8, i32, i32, i64, ptr, ptr, [5 x i8], i8, i32, i8, i64, i64, i64, i64, ptr, %struct.anon.10, %union.anon.11, i8, ptr, ptr, ptr, %struct.CoQueue, i32, ptr, i8, i8, i32 }
%struct.anon.9 = type { ptr }
%struct.Qcow2CryptoHeaderExtension = type { i64, i64 }
%struct.anon.10 = type { ptr }
%union.anon.11 = type { %struct.QTailQLink }

@.str.3 = private unnamed_addr constant [54 x i8] c"Refblock offset %#lx unaligned (reftable index: %#lx)\00", align 1

; Function Attrs: nounwind sspstrong uwtable
define internal i64 @offset_into_cluster(ptr noundef %s, i64 noundef %offset) #0 {
entry:
  %s.addr = alloca ptr, align 8
  %offset.addr = alloca i64, align 8
  store ptr %s, ptr %s.addr, align 8
  store i64 %offset, ptr %offset.addr, align 8
  %0 = load i64, ptr %offset.addr, align 8
  %1 = load ptr, ptr %s.addr, align 8
  %cluster_size = getelementptr inbounds %struct.BDRVQcow2State, ptr %1, i32 0, i32 1
  %2 = load i32, ptr %cluster_size, align 4
  %sub = sub i32 %2, 1
  %conv = sext i32 %sub to i64
  %and = and i64 %0, %conv
  ret i64 %and
}

; Function Attrs: nounwind sspstrong uwtable
define dso_local i32 @qcow2_get_refcount(ptr noundef %bs, i64 noundef %cluster_index, ptr noundef %refcount) #0 {
entry:
  %retval = alloca i32, align 4
  %bs.addr = alloca ptr, align 8
  %cluster_index.addr = alloca i64, align 8
  %refcount.addr = alloca ptr, align 8
  %s = alloca ptr, align 8
  %refcount_table_index = alloca i64, align 8
  %block_index = alloca i64, align 8
  %refcount_block_offset = alloca i64, align 8
  %ret = alloca i32, align 4
  %refcount_block = alloca ptr, align 8
  store ptr %bs, ptr %bs.addr, align 8
  store i64 %cluster_index, ptr %cluster_index.addr, align 8
  store ptr %refcount, ptr %refcount.addr, align 8
  %0 = load ptr, ptr %bs.addr, align 8
  %opaque = getelementptr inbounds %struct.BlockDriverState, ptr %0, i32 0, i32 7
  %1 = load ptr, ptr %opaque, align 8
  store ptr %1, ptr %s, align 8
  %2 = load i64, ptr %cluster_index.addr, align 8
  %3 = load ptr, ptr %s, align 8
  %refcount_block_bits = getelementptr inbounds %struct.BDRVQcow2State, ptr %3, i32 0, i32 10
  %4 = load i32, ptr %refcount_block_bits, align 8
  %sh_prom = zext i32 %4 to i64
  %shr = ashr i64 %2, %sh_prom
  store i64 %shr, ptr %refcount_table_index, align 8
  %5 = load i64, ptr %refcount_table_index, align 8
  %6 = load ptr, ptr %s, align 8
  %refcount_table_size = getelementptr inbounds %struct.BDRVQcow2State, ptr %6, i32 0, i32 24
  %7 = load i32, ptr %refcount_table_size, align 8
  %conv = zext i32 %7 to i64
  %cmp = icmp uge i64 %5, %conv
  br i1 %cmp, label %if.then, label %if.end

if.then:                                          ; preds = %entry
  %8 = load ptr, ptr %refcount.addr, align 8
  store i64 0, ptr %8, align 8
  store i32 0, ptr %retval, align 4
  br label %return

if.end:                                           ; preds = %entry
  %9 = load ptr, ptr %s, align 8
  %refcount_table = getelementptr inbounds %struct.BDRVQcow2State, ptr %9, i32 0, i32 22
  %10 = load ptr, ptr %refcount_table, align 8
  %11 = load i64, ptr %refcount_table_index, align 8
  %arrayidx = getelementptr i64, ptr %10, i64 %11
  %12 = load i64, ptr %arrayidx, align 8
  %and = and i64 %12, -512
  store i64 %and, ptr %refcount_block_offset, align 8
  %13 = load i64, ptr %refcount_block_offset, align 8
  %tobool = icmp ne i64 %13, 0
  br i1 %tobool, label %if.end3, label %if.then2

if.then2:                                         ; preds = %if.end
  %14 = load ptr, ptr %refcount.addr, align 8
  store i64 0, ptr %14, align 8
  store i32 0, ptr %retval, align 4
  br label %return

if.end3:                                          ; preds = %if.end
  %15 = load ptr, ptr %s, align 8
  %16 = load i64, ptr %refcount_block_offset, align 8
  %call = call i64 @offset_into_cluster(ptr noundef %15, i64 noundef %16)
  %tobool4 = icmp ne i64 %call, 0
  br i1 %tobool4, label %if.then5, label %if.end6

if.then5:                                         ; preds = %if.end3
  %17 = load ptr, ptr %bs.addr, align 8
  %18 = load i64, ptr %refcount_block_offset, align 8
  %19 = load i64, ptr %refcount_table_index, align 8
  call void (ptr, i1, i64, i64, ptr, ...) @qcow2_signal_corruption(ptr noundef %17, i1 noundef zeroext true, i64 noundef -1, i64 noundef -1, ptr noundef @.str.3, i64 noundef %18, i64 noundef %19)
  store i32 -5, ptr %retval, align 4
  br label %return

if.end6:                                          ; preds = %if.end3
  %20 = load ptr, ptr %bs.addr, align 8
  %21 = load ptr, ptr %s, align 8
  %refcount_block_cache = getelementptr inbounds %struct.BDRVQcow2State, ptr %21, i32 0, i32 18
  %22 = load ptr, ptr %refcount_block_cache, align 8
  %23 = load i64, ptr %refcount_block_offset, align 8
  %call7 = call i32 @qcow2_cache_get(ptr noundef %20, ptr noundef %22, i64 noundef %23, ptr noundef %refcount_block)
  store i32 %call7, ptr %ret, align 4
  %24 = load i32, ptr %ret, align 4
  %cmp8 = icmp slt i32 %24, 0
  br i1 %cmp8, label %if.then10, label %if.end11

if.then10:                                        ; preds = %if.end6
  %25 = load i32, ptr %ret, align 4
  store i32 %25, ptr %retval, align 4
  br label %return

if.end11:                                         ; preds = %if.end6
  %26 = load i64, ptr %cluster_index.addr, align 8
  %27 = load ptr, ptr %s, align 8
  %refcount_block_size = getelementptr inbounds %struct.BDRVQcow2State, ptr %27, i32 0, i32 11
  %28 = load i32, ptr %refcount_block_size, align 4
  %sub = sub i32 %28, 1
  %conv12 = sext i32 %sub to i64
  %and13 = and i64 %26, %conv12
  store i64 %and13, ptr %block_index, align 8
  %29 = load ptr, ptr %s, align 8
  %get_refcount = getelementptr inbounds %struct.BDRVQcow2State, ptr %29, i32 0, i32 47
  %30 = load ptr, ptr %get_refcount, align 8
  %31 = load ptr, ptr %refcount_block, align 8
  %32 = load i64, ptr %block_index, align 8
  %call14 = call i64 %30(ptr noundef %31, i64 noundef %32)
  %33 = load ptr, ptr %refcount.addr, align 8
  store i64 %call14, ptr %33, align 8
  %34 = load ptr, ptr %s, align 8
  %refcount_block_cache15 = getelementptr inbounds %struct.BDRVQcow2State, ptr %34, i32 0, i32 18
  %35 = load ptr, ptr %refcount_block_cache15, align 8
  call void @qcow2_cache_put(ptr noundef %35, ptr noundef %refcount_block)
  store i32 0, ptr %retval, align 4
  br label %return

return:                                           ; preds = %if.end11, %if.then10, %if.then5, %if.then2, %if.then
  %36 = load i32, ptr %retval, align 4
  ret i32 %36
}