; Function Attrs: nounwind sspstrong uwtable
define dso_local range(i32 -2147483648, 1) i32 @qcow2_get_refcount(ptr noundef %bs, i64 noundef %cluster_index, ptr noundef writeonly captures(none) %refcount) local_unnamed_addr #0 {
entry:
  %refcount_block = alloca ptr, align 8
  %opaque = getelementptr inbounds nuw i8, ptr %bs, i64 24
  %0 = load ptr, ptr %opaque, align 8
  %refcount_block_bits = getelementptr inbounds nuw i8, ptr %0, i64 40
  %1 = load i32, ptr %refcount_block_bits, align 8
  %sh_prom = zext nneg i32 %1 to i64
  %shr = ashr i64 %cluster_index, %sh_prom
  %refcount_table_size = getelementptr inbounds nuw i8, ptr %0, i64 136
  %2 = load i32, ptr %refcount_table_size, align 8
  %conv = zext i32 %2 to i64
  %cmp.not = icmp ult i64 %shr, %conv
  br i1 %cmp.not, label %if.end, label %if.then

if.then:                                          ; preds = %entry
  store i64 0, ptr %refcount, align 8
  br label %return

if.end:                                           ; preds = %entry
  %refcount_table = getelementptr inbounds nuw i8, ptr %0, i64 120
  %3 = load ptr, ptr %refcount_table, align 8
  %arrayidx = getelementptr i64, ptr %3, i64 %shr
  %4 = load i64, ptr %arrayidx, align 8
  %and = and i64 %4, -512
  %tobool.not = icmp eq i64 %and, 0
  br i1 %tobool.not, label %if.then2, label %if.end3

if.then2:                                         ; preds = %if.end
  store i64 0, ptr %refcount, align 8
  br label %return

if.end3:                                          ; preds = %if.end
  %5 = getelementptr i8, ptr %0, i64 4
  %.val = load i32, ptr %5, align 4
  %sub.i = add i32 %.val, -1
  %conv.i = sext i32 %sub.i to i64
  %and.i = and i64 %and, %conv.i
  %tobool4.not = icmp eq i64 %and.i, 0
  br i1 %tobool4.not, label %if.end6, label %if.then5

if.then5:                                         ; preds = %if.end3
  tail call void (ptr, i1, i64, i64, ptr, ...) @qcow2_signal_corruption(ptr noundef nonnull %bs, i1 noundef zeroext true, i64 noundef -1, i64 noundef -1, ptr noundef nonnull @.str.3, i64 noundef %and, i64 noundef %shr) #17
  br label %return

if.end6:                                          ; preds = %if.end3
  %refcount_block_cache = getelementptr inbounds nuw i8, ptr %0, i64 88
  %6 = load ptr, ptr %refcount_block_cache, align 8
  %call7 = call i32 @qcow2_cache_get(ptr noundef nonnull %bs, ptr noundef %6, i64 noundef %and, ptr noundef nonnull %refcount_block) #17
  %cmp8 = icmp slt i32 %call7, 0
  br i1 %cmp8, label %return, label %if.end11

if.end11:                                         ; preds = %if.end6
  %refcount_block_size = getelementptr inbounds nuw i8, ptr %0, i64 44
  %7 = load i32, ptr %refcount_block_size, align 4
  %sub = add i32 %7, -1
  %conv12 = sext i32 %sub to i64
  %and13 = and i64 %cluster_index, %conv12
  %get_refcount = getelementptr inbounds nuw i8, ptr %0, i64 328
  %8 = load ptr, ptr %get_refcount, align 8
  %9 = load ptr, ptr %refcount_block, align 8
  %call14 = call i64 %8(ptr noundef %9, i64 noundef %and13) #17
  store i64 %call14, ptr %refcount, align 8
  %10 = load ptr, ptr %refcount_block_cache, align 8
  call void @qcow2_cache_put(ptr noundef %10, ptr noundef nonnull %refcount_block) #17
  br label %return

return:                                           ; preds = %if.end6, %if.end11, %if.then5, %if.then2, %if.then
  %retval.0 = phi i32 [ 0, %if.then ], [ -5, %if.then5 ], [ 0, %if.end11 ], [ 0, %if.then2 ], [ %call7, %if.end6 ]
  ret i32 %retval.0
}